target datalayout = "e-m:e-p270:32:32-p271:32:32-p272:64:64-i64:64-i128:128-f80:128-n8:16:32:64-S128"
target triple = "x86_64-pc-linux-gnu"

%class.dtObstacleAvoidanceQuery = type <{ %struct.dtObstacleAvoidanceParams, float, float, float, i32, [4 x i8], ptr, i32, i32, ptr, i32, [4 x i8] }>
%struct.dtObstacleAvoidanceParams = type { float, float, float, float, float, float, i8, i8, i8, i8 }
%struct.dtObstacleSegment = type { [3 x float], [3 x float], i8 }

; Function Attrs: mustprogress nounwind uwtable
define linkonce_odr void @_Z7dtVcopyPfPKf(ptr noundef %0, ptr noundef %1) #2 comdat {
  %3 = alloca ptr, align 8
  %4 = alloca ptr, align 8
  store ptr %0, ptr %3, align 8
  store ptr %1, ptr %4, align 8
  %5 = load ptr, ptr %4, align 8
  %6 = getelementptr inbounds float, ptr %5, i64 0
  %7 = load float, ptr %6, align 4
  %8 = load ptr, ptr %3, align 8
  %9 = getelementptr inbounds float, ptr %8, i64 0
  store float %7, ptr %9, align 4
  %10 = load ptr, ptr %4, align 8
  %11 = getelementptr inbounds float, ptr %10, i64 1
  %12 = load float, ptr %11, align 4
  %13 = load ptr, ptr %3, align 8
  %14 = getelementptr inbounds float, ptr %13, i64 1
  store float %12, ptr %14, align 4
  %15 = load ptr, ptr %4, align 8
  %16 = getelementptr inbounds float, ptr %15, i64 2
  %17 = load float, ptr %16, align 4
  %18 = load ptr, ptr %3, align 8
  %19 = getelementptr inbounds float, ptr %18, i64 2
  store float %17, ptr %19, align 4
  ret void
}

; Function Attrs: mustprogress uwtable
define void @_ZN24dtObstacleAvoidanceQuery10addSegmentEPKfS1_(ptr noundef nonnull align 8 dereferenceable(76) %0, ptr noundef %1, ptr noundef %2) #0 align 2 {
  %4 = alloca ptr, align 8
  %5 = alloca ptr, align 8
  %6 = alloca ptr, align 8
  %7 = alloca ptr, align 8
  store ptr %0, ptr %4, align 8
  store ptr %1, ptr %5, align 8
  store ptr %2, ptr %6, align 8
  %8 = load ptr, ptr %4, align 8
  %9 = getelementptr inbounds %class.dtObstacleAvoidanceQuery, ptr %8, i32 0, i32 10
  %10 = load i32, ptr %9, align 8
  %11 = getelementptr inbounds %class.dtObstacleAvoidanceQuery, ptr %8, i32 0, i32 8
  %12 = load i32, ptr %11, align 4
  %13 = icmp sge i32 %10, %12
  br i1 %13, label %14, label %15

14:                                               ; preds = %3
  br label %31

15:                                               ; preds = %3
  %16 = getelementptr inbounds %class.dtObstacleAvoidanceQuery, ptr %8, i32 0, i32 9
  %17 = load ptr, ptr %16, align 8
  %18 = getelementptr inbounds %class.dtObstacleAvoidanceQuery, ptr %8, i32 0, i32 10
  %19 = load i32, ptr %18, align 8
  %20 = add nsw i32 %19, 1
  store i32 %20, ptr %18, align 8
  %21 = sext i32 %19 to i64
  %22 = getelementptr inbounds %struct.dtObstacleSegment, ptr %17, i64 %21
  store ptr %22, ptr %7, align 8
  %23 = load ptr, ptr %7, align 8
  %24 = getelementptr inbounds %struct.dtObstacleSegment, ptr %23, i32 0, i32 0
  %25 = getelementptr inbounds [3 x float], ptr %24, i64 0, i64 0
  %26 = load ptr, ptr %5, align 8
  call void @_Z7dtVcopyPfPKf(ptr noundef %25, ptr noundef %26)
  %27 = load ptr, ptr %7, align 8
  %28 = getelementptr inbounds %struct.dtObstacleSegment, ptr %27, i32 0, i32 1
  %29 = getelementptr inbounds [3 x float], ptr %28, i64 0, i64 0
  %30 = load ptr, ptr %6, align 8
  call void @_Z7dtVcopyPfPKf(ptr noundef %29, ptr noundef %30)
  br label %31

31:                                               ; preds = %15, %14
  ret void
}