; Function Attrs: mustprogress nofree norecurse nosync nounwind willreturn memory(write, argmem: readwrite, inaccessiblemem: none) uwtable
define void @_ZN24dtObstacleAvoidanceQuery10addSegmentEPKfS1_(ptr noundef nonnull align 8 captures(none) dereferenceable(76) %0, ptr noundef readonly captures(none) %1, ptr noundef readonly captures(none) %2) local_unnamed_addr #8 align 2 {
  %4 = getelementptr inbounds nuw i8, ptr %0, i64 72
  %5 = load i32, ptr %4, align 8
  %6 = getelementptr inbounds nuw i8, ptr %0, i64 60
  %7 = load i32, ptr %6, align 4
  %.not = icmp slt i32 %5, %7
  br i1 %.not, label %8, label %29

8:                                                ; preds = %3
  %9 = getelementptr inbounds nuw i8, ptr %0, i64 64
  %10 = load ptr, ptr %9, align 8
  %11 = add nsw i32 %5, 1
  store i32 %11, ptr %4, align 8
  %12 = sext i32 %5 to i64
  %13 = getelementptr inbounds %struct.dtObstacleSegment, ptr %10, i64 %12
  %14 = load float, ptr %1, align 4
  store float %14, ptr %13, align 4
  %15 = getelementptr inbounds nuw i8, ptr %1, i64 4
  %16 = load float, ptr %15, align 4
  %17 = getelementptr inbounds nuw i8, ptr %13, i64 4
  store float %16, ptr %17, align 4
  %18 = getelementptr inbounds nuw i8, ptr %1, i64 8
  %19 = load float, ptr %18, align 4
  %20 = getelementptr inbounds nuw i8, ptr %13, i64 8
  store float %19, ptr %20, align 4
  %21 = getelementptr inbounds nuw i8, ptr %13, i64 12
  %22 = load float, ptr %2, align 4
  store float %22, ptr %21, align 4
  %23 = getelementptr inbounds nuw i8, ptr %2, i64 4
  %24 = load float, ptr %23, align 4
  %25 = getelementptr inbounds nuw i8, ptr %13, i64 16
  store float %24, ptr %25, align 4
  %26 = getelementptr inbounds nuw i8, ptr %2, i64 8
  %27 = load float, ptr %26, align 4
  %28 = getelementptr inbounds nuw i8, ptr %13, i64 20
  store float %27, ptr %28, align 4
  br label %29

29:                                               ; preds = %3, %8
  ret void
}